; Function Attrs: nounwind uwtable
define hidden void @zif_session_unset(ptr nocapture noundef readonly %0, ptr nocapture noundef writeonly %1) #0 {
  %3 = getelementptr inbounds i8, ptr %0, i64 44
  %4 = load i32, ptr %3, align 4
  %.not = icmp eq i32 %4, 0
  br i1 %.not, label %.critedge, label %5

5:                                                ; preds = %2
  tail call void @zend_wrong_parameters_none_error() #23
  %6 = load ptr, ptr getelementptr inbounds (%struct._zend_executor_globals, ptr @executor_globals, i64 0, i32 50), align 8
  %7 = icmp ne ptr %6, null
  tail call void @llvm.assume(i1 %7)
  br label %36

.critedge:                                        ; preds = %2
  %8 = load i32, ptr getelementptr inbounds (%struct._php_ps_globals, ptr @ps_globals, i64 0, i32 14), align 8
  %.not18 = icmp eq i32 %8, 2
  br i1 %.not18, label %11, label %9

9:                                                ; preds = %.critedge
  %10 = getelementptr inbounds i8, ptr %1, i64 8
  store i32 2, ptr %10, align 8
  br label %36

11:                                               ; preds = %.critedge
  %12 = load i8, ptr getelementptr inbounds (%struct._php_ps_globals, ptr @ps_globals, i64 0, i32 35, i32 1), align 16
  %13 = icmp eq i8 %12, 10
  br i1 %13, label %14, label %34

14:                                               ; preds = %11
  %15 = load ptr, ptr getelementptr inbounds (%struct._php_ps_globals, ptr @ps_globals, i64 0, i32 35), align 8
  %16 = getelementptr inbounds i8, ptr %15, i64 8
  %17 = getelementptr inbounds i8, ptr %15, i64 16
  %18 = load i8, ptr %17, align 8
  %19 = icmp eq i8 %18, 7
  br i1 %19, label %20, label %34

20:                                               ; preds = %14
  %21 = load ptr, ptr %16, align 8
  %22 = load i32, ptr %21, align 4
  %23 = icmp ugt i32 %22, 1
  br i1 %23, label %24, label %32

24:                                               ; preds = %20
  %25 = tail call ptr @zend_array_dup(ptr noundef nonnull %21) #23
  store ptr %25, ptr %16, align 8
  store i32 775, ptr %17, align 8
  %26 = getelementptr inbounds i8, ptr %21, i64 4
  %27 = load i32, ptr %26, align 4
  %28 = and i32 %27, 64
  %.not19 = icmp eq i32 %28, 0
  br i1 %.not19, label %29, label %32

29:                                               ; preds = %24
  %30 = load i32, ptr %21, align 4
  %31 = add i32 %30, -1
  store i32 %31, ptr %21, align 4
  %.pre = load ptr, ptr %16, align 8
  br label %32

32:                                               ; preds = %20, %29, %24
  %33 = phi ptr [ %21, %20 ], [ %.pre, %29 ], [ %25, %24 ]
  tail call void @zend_hash_clean(ptr noundef %33) #23
  br label %34

34:                                               ; preds = %32, %14, %11
  %35 = getelementptr inbounds i8, ptr %1, i64 8
  store i32 3, ptr %35, align 8
  br label %36

36:                                               ; preds = %34, %9, %5
  ret void
}